; Function Attrs: mustprogress uwtable
define internal fastcc noundef zeroext i1 @_ZN5YosysL18is_autonamed_blockERKNSt7__cxx1112basic_stringIcSt11char_traitsIcESaIcEEE(ptr noundef nonnull align 8 dereferenceable(32) %0) unnamed_addr #3 {
  %2 = tail call noundef i64 @_ZNKSt7__cxx1112basic_stringIcSt11char_traitsIcESaIcEE5rfindEcm(ptr noundef nonnull align 8 dereferenceable(32) %0, i8 noundef signext 46, i64 noundef -1) #35
  %3 = icmp eq i64 %2, -1
  br i1 %3, label %4, label %11

4:                                                ; preds = %1
  %5 = getelementptr inbounds nuw i8, ptr %0, i64 8
  %6 = load i64, ptr %5, align 8, !tbaa !82
  %.not.i.not = icmp eq i64 %6, 0
  br i1 %.not.i.not, label %7, label %_ZNKSt7__cxx1112basic_stringIcSt11char_traitsIcESaIcEE2atEm.exit

7:                                                ; preds = %4
  tail call void (ptr, ...) @_ZSt24__throw_out_of_range_fmtPKcz(ptr noundef nonnull @.str.253, i64 noundef 0, i64 noundef 0) #39
  unreachable

_ZNKSt7__cxx1112basic_stringIcSt11char_traitsIcESaIcEE2atEm.exit: ; preds = %4
  %8 = load ptr, ptr %0, align 8, !tbaa !87
  %9 = load i8, ptr %8, align 1, !tbaa !83
  %10 = icmp eq i8 %9, 36
  br label %14

11:                                               ; preds = %1
  %12 = tail call noundef i64 @_ZNKSt7__cxx1112basic_stringIcSt11char_traitsIcESaIcEE5rfindEPKcmm(ptr noundef nonnull align 8 dereferenceable(32) %0, ptr noundef nonnull @.str.245, i64 noundef -1, i64 noundef 2) #35
  %13 = icmp eq i64 %12, %2
  br label %14

14:                                               ; preds = %11, %_ZNKSt7__cxx1112basic_stringIcSt11char_traitsIcESaIcEE2atEm.exit
  %.0 = phi i1 [ %10, %_ZNKSt7__cxx1112basic_stringIcSt11char_traitsIcESaIcEE2atEm.exit ], [ %13, %11 ]
  ret i1 %.0
}